; Function Attrs: nounwind uwtable
define ptr @curl_easy_unescape(ptr noundef readnone captures(none) %0, ptr noundef readonly %1, i32 noundef %2, ptr noundef writeonly %3) local_unnamed_addr #0 {
  %5 = icmp ne ptr %1, null
  %6 = icmp sgt i32 %2, -1
  %or.cond = and i1 %5, %6
  br i1 %or.cond, label %7, label %.critedge

7:                                                ; preds = %4
  %8 = zext nneg i32 %2 to i64
  %.not.i = icmp eq i32 %2, 0
  br i1 %.not.i, label %9, label %11

9:                                                ; preds = %7
  %10 = tail call i64 @strlen(ptr noundef nonnull readonly dereferenceable(1) %1) #6
  br label %11

11:                                               ; preds = %9, %7
  %12 = phi i64 [ %10, %9 ], [ %8, %7 ]
  %13 = load ptr, ptr @Curl_cmalloc, align 8, !tbaa !3
  %14 = add i64 %12, 1
  %15 = tail call ptr %13(i64 noundef %14) #5
  %.not67.i = icmp eq ptr %15, null
  br i1 %.not67.i, label %.critedge, label %16

16:                                               ; preds = %11
  %.not6884.i = icmp eq i64 %12, 0
  br i1 %.not6884.i, label %.loopexit, label %.lr.ph.split.us.split.us.i

.lr.ph.split.us.split.us.i:                       ; preds = %16, %39
  %.05187.us.us.i = phi ptr [ %42, %39 ], [ %15, %16 ]
  %.05286.us.us.i = phi i64 [ %41, %39 ], [ %12, %16 ]
  %.05685.us.us.i = phi ptr [ %40, %39 ], [ %1, %16 ]
  %17 = load i8, ptr %.05685.us.us.i, align 1, !tbaa !7
  %18 = icmp eq i8 %17, 37
  %19 = icmp ugt i64 %.05286.us.us.i, 2
  %or.cond.us.us.i = and i1 %19, %18
  br i1 %or.cond.us.us.i, label %20, label %39

20:                                               ; preds = %.lr.ph.split.us.split.us.i
  %21 = getelementptr inbounds nuw i8, ptr %.05685.us.us.i, i64 1
  %22 = load i8, ptr %21, align 1, !tbaa !7
  %.fr93.i = freeze i8 %22
  %23 = add i8 %.fr93.i, -48
  %or.cond70.us.us.i = icmp ult i8 %23, 10
  br i1 %or.cond70.us.us.i, label %24, label %switch.early.test.us.us.i

switch.early.test.us.us.i:                        ; preds = %20
  switch i8 %.fr93.i, label %39 [
    i8 102, label %24
    i8 101, label %24
    i8 100, label %24
    i8 99, label %24
    i8 98, label %24
    i8 97, label %24
    i8 70, label %24
    i8 69, label %24
    i8 68, label %24
    i8 67, label %24
    i8 66, label %24
    i8 65, label %24
  ]

24:                                               ; preds = %switch.early.test.us.us.i, %switch.early.test.us.us.i, %switch.early.test.us.us.i, %switch.early.test.us.us.i, %switch.early.test.us.us.i, %switch.early.test.us.us.i, %switch.early.test.us.us.i, %switch.early.test.us.us.i, %switch.early.test.us.us.i, %switch.early.test.us.us.i, %switch.early.test.us.us.i, %switch.early.test.us.us.i, %20
  %25 = getelementptr inbounds nuw i8, ptr %.05685.us.us.i, i64 2
  %26 = load i8, ptr %25, align 1, !tbaa !7
  %.fr94.i = freeze i8 %26
  %27 = add i8 %.fr94.i, -48
  %or.cond73.us.us.i = icmp ult i8 %27, 10
  br i1 %or.cond73.us.us.i, label %28, label %switch.early.test82.us.us.i

switch.early.test82.us.us.i:                      ; preds = %24
  switch i8 %.fr94.i, label %39 [
    i8 102, label %28
    i8 101, label %28
    i8 100, label %28
    i8 99, label %28
    i8 98, label %28
    i8 97, label %28
    i8 70, label %28
    i8 69, label %28
    i8 68, label %28
    i8 67, label %28
    i8 66, label %28
    i8 65, label %28
  ]

28:                                               ; preds = %switch.early.test82.us.us.i, %switch.early.test82.us.us.i, %switch.early.test82.us.us.i, %switch.early.test82.us.us.i, %switch.early.test82.us.us.i, %switch.early.test82.us.us.i, %switch.early.test82.us.us.i, %switch.early.test82.us.us.i, %switch.early.test82.us.us.i, %switch.early.test82.us.us.i, %switch.early.test82.us.us.i, %switch.early.test82.us.us.i, %24
  %29 = zext nneg i8 %.fr93.i to i64
  %30 = add nsw i64 %29, -48
  %31 = getelementptr inbounds [55 x i8], ptr @hextable, i64 0, i64 %30
  %32 = load i8, ptr %31, align 1, !tbaa !7
  %33 = shl i8 %32, 4
  %34 = zext nneg i8 %.fr94.i to i64
  %35 = add nsw i64 %34, -48
  %36 = getelementptr inbounds [55 x i8], ptr @hextable, i64 0, i64 %35
  %37 = load i8, ptr %36, align 1, !tbaa !7
  %38 = or i8 %33, %37
  br label %39

39:                                               ; preds = %28, %switch.early.test82.us.us.i, %switch.early.test.us.us.i, %.lr.ph.split.us.split.us.i
  %.sink105.i = phi i64 [ 3, %28 ], [ 1, %switch.early.test82.us.us.i ], [ 1, %switch.early.test.us.us.i ], [ 1, %.lr.ph.split.us.split.us.i ]
  %.sink.i = phi i64 [ -3, %28 ], [ -1, %switch.early.test82.us.us.i ], [ -1, %switch.early.test.us.us.i ], [ -1, %.lr.ph.split.us.split.us.i ]
  %.0.us.us.i = phi i8 [ %38, %28 ], [ 37, %switch.early.test82.us.us.i ], [ 37, %switch.early.test.us.us.i ], [ %17, %.lr.ph.split.us.split.us.i ]
  %40 = getelementptr inbounds nuw i8, ptr %.05685.us.us.i, i64 %.sink105.i
  %41 = add i64 %.sink.i, %.05286.us.us.i
  %42 = getelementptr inbounds nuw i8, ptr %.05187.us.us.i, i64 1
  store i8 %.0.us.us.i, ptr %.05187.us.us.i, align 1, !tbaa !7
  %.not68.us.us.i = icmp eq i64 %41, 0
  br i1 %.not68.us.us.i, label %.loopexit, label %.lr.ph.split.us.split.us.i, !llvm.loop !10

.loopexit:                                        ; preds = %39, %16
  %.051.lcssa.i = phi ptr [ %15, %16 ], [ %42, %39 ]
  store i8 0, ptr %.051.lcssa.i, align 1, !tbaa !7
  %43 = ptrtoint ptr %.051.lcssa.i to i64
  %44 = ptrtoint ptr %15 to i64
  %45 = sub i64 %43, %44
  %.not15 = icmp eq ptr %3, null
  br i1 %.not15, label %.critedge, label %46

46:                                               ; preds = %.loopexit
  %47 = icmp ult i64 %45, 2147483648
  br i1 %47, label %48, label %50

48:                                               ; preds = %46
  %49 = tail call i32 @curlx_uztosi(i64 noundef %45) #5
  store i32 %49, ptr %3, align 4, !tbaa !11
  br label %.critedge

50:                                               ; preds = %46
  %51 = load ptr, ptr @Curl_cfree, align 8, !tbaa !3
  tail call void %51(ptr noundef nonnull %15) #5
  br label %.critedge

.critedge:                                        ; preds = %11, %4, %.loopexit, %50, %48
  %.1 = phi ptr [ null, %4 ], [ %15, %.loopexit ], [ %15, %48 ], [ null, %50 ], [ null, %11 ]
  ret ptr %.1
}